; Function Attrs: nounwind uwtable
define internal fastcc void @jq_yy_init_buffer(ptr noundef captures(address) %0, ptr noundef %1, ptr noundef captures(none) %2) unnamed_addr #0 {
  %4 = tail call ptr @__errno_location() #19
  %5 = load i32, ptr %4, align 4, !tbaa !60
  %.not.i = icmp eq ptr %0, null
  br i1 %.not.i, label %jq_yy_flush_buffer.exit, label %6

6:                                                ; preds = %3
  %7 = getelementptr inbounds nuw i8, ptr %0, i64 28
  store i32 0, ptr %7, align 4, !tbaa !31
  %8 = getelementptr inbounds nuw i8, ptr %0, i64 8
  %9 = load ptr, ptr %8, align 8, !tbaa !29
  store i8 0, ptr %9, align 1, !tbaa !37
  %10 = load ptr, ptr %8, align 8, !tbaa !29
  %11 = getelementptr inbounds nuw i8, ptr %10, i64 1
  store i8 0, ptr %11, align 1, !tbaa !37
  %12 = load ptr, ptr %8, align 8, !tbaa !29
  %13 = getelementptr inbounds nuw i8, ptr %0, i64 16
  store ptr %12, ptr %13, align 8, !tbaa !33
  %14 = getelementptr inbounds nuw i8, ptr %0, i64 40
  store i32 1, ptr %14, align 8, !tbaa !66
  %15 = getelementptr inbounds nuw i8, ptr %0, i64 56
  store i32 0, ptr %15, align 8, !tbaa !51
  %16 = getelementptr inbounds nuw i8, ptr %2, i64 40
  %17 = load ptr, ptr %16, align 8, !tbaa !22
  %.not15.i = icmp eq ptr %17, null
  br i1 %.not15.i, label %jq_yy_flush_buffer.exit.thread21, label %19

jq_yy_flush_buffer.exit.thread21:                 ; preds = %6
  store ptr %1, ptr %0, align 8, !tbaa !36
  %18 = getelementptr inbounds nuw i8, ptr %0, i64 52
  store i32 1, ptr %18, align 4, !tbaa !55
  br label %.thread

19:                                               ; preds = %6
  %20 = getelementptr inbounds nuw i8, ptr %2, i64 24
  %21 = load i64, ptr %20, align 8, !tbaa !23
  %22 = getelementptr inbounds nuw ptr, ptr %17, i64 %21
  %23 = load ptr, ptr %22, align 8, !tbaa !24
  %24 = icmp eq ptr %0, %23
  br i1 %24, label %25, label %jq_yy_flush_buffer.exit.thread

25:                                               ; preds = %19
  %26 = getelementptr inbounds nuw i8, ptr %23, i64 28
  %27 = load i32, ptr %26, align 4, !tbaa !31
  %28 = getelementptr inbounds nuw i8, ptr %2, i64 52
  store i32 %27, ptr %28, align 4, !tbaa !32
  %29 = getelementptr inbounds nuw i8, ptr %23, i64 16
  %30 = load ptr, ptr %29, align 8, !tbaa !33
  %31 = getelementptr inbounds nuw i8, ptr %2, i64 64
  store ptr %30, ptr %31, align 8, !tbaa !34
  %32 = getelementptr inbounds nuw i8, ptr %2, i64 128
  store ptr %30, ptr %32, align 8, !tbaa !35
  %33 = load ptr, ptr %23, align 8, !tbaa !36
  %34 = getelementptr inbounds nuw i8, ptr %2, i64 8
  store ptr %33, ptr %34, align 8, !tbaa !19
  %35 = load i8, ptr %30, align 1, !tbaa !37
  %36 = getelementptr inbounds nuw i8, ptr %2, i64 48
  store i8 %35, ptr %36, align 8, !tbaa !38
  br label %jq_yy_flush_buffer.exit.thread

jq_yy_flush_buffer.exit.thread:                   ; preds = %19, %25
  store ptr %1, ptr %0, align 8, !tbaa !36
  %37 = getelementptr inbounds nuw i8, ptr %0, i64 52
  store i32 1, ptr %37, align 4, !tbaa !55
  br label %39

jq_yy_flush_buffer.exit:                          ; preds = %3
  %.phi.trans.insert = getelementptr inbounds nuw i8, ptr %2, i64 40
  %.pre = load ptr, ptr %.phi.trans.insert, align 8, !tbaa !22
  store ptr %1, ptr %0, align 8, !tbaa !36
  %38 = getelementptr inbounds nuw i8, ptr %0, i64 52
  store i32 1, ptr %38, align 4, !tbaa !55
  %.not = icmp eq ptr %.pre, null
  br i1 %.not, label %.thread, label %39

39:                                               ; preds = %jq_yy_flush_buffer.exit.thread, %jq_yy_flush_buffer.exit
  %40 = phi ptr [ %17, %jq_yy_flush_buffer.exit.thread ], [ %.pre, %jq_yy_flush_buffer.exit ]
  %41 = getelementptr inbounds nuw i8, ptr %2, i64 24
  %42 = load i64, ptr %41, align 8, !tbaa !23
  %43 = getelementptr inbounds nuw ptr, ptr %40, i64 %42
  %44 = load ptr, ptr %43, align 8, !tbaa !24
  %.not17 = icmp eq ptr %0, %44
  br i1 %.not17, label %47, label %.thread

.thread:                                          ; preds = %jq_yy_flush_buffer.exit.thread21, %jq_yy_flush_buffer.exit, %39
  %45 = getelementptr inbounds nuw i8, ptr %0, i64 44
  store i32 1, ptr %45, align 4, !tbaa !67
  %46 = getelementptr inbounds nuw i8, ptr %0, i64 48
  store i32 0, ptr %46, align 8, !tbaa !68
  br label %47

47:                                               ; preds = %.thread, %39
  %.not18 = icmp eq ptr %1, null
  br i1 %.not18, label %53, label %48

48:                                               ; preds = %47
  %49 = tail call i32 @fileno(ptr noundef nonnull %1) #17
  %50 = tail call i32 @isatty(i32 noundef %49) #17
  %51 = icmp sgt i32 %50, 0
  %52 = zext i1 %51 to i32
  br label %53

53:                                               ; preds = %47, %48
  %54 = phi i32 [ %52, %48 ], [ 0, %47 ]
  %55 = getelementptr inbounds nuw i8, ptr %0, i64 36
  store i32 %54, ptr %55, align 4, !tbaa !58
  store i32 %5, ptr %4, align 4, !tbaa !60
  ret void
}